(dp0
S'show_imports'
p1
I0
sS'prj_name'
p2
S'YoukaiTools'
p3
sS'docformat'
p4
S'epytext'
p5
sS'inheritance'
p6
S'grouped'
p7
sS'help'
p8
NsS'modules'
p9
(S'/home/nathan/workspace/nate_python2/YoukaiTools/src/YoukaiTools/GraphEngine/BaseObjects.py'
p10
S'/home/nathan/workspace/nate_python2/YoukaiTools/src/YoukaiTools/GraphEngine/Graphs.py'
p11
S'/home/nathan/workspace/nate_python2/YoukaiTools/src/YoukaiTools/GraphEngine/__init__.py'
p12
S'/home/nathan/workspace/nate_python2/YoukaiTools/src/YoukaiTools/__init__.py'
p13
tp14
sS'private'
p15
I1
sS'prj_url'
p16
S'www.yukaicountry.com'
p17
sS'introspect_or_parse'
p18
S'both'
p19
sS'frames'
p20
I1
sS'css'
p21
S'default'
p22
sS'target'
p23
S'doc'
p24
s.